(dp1
S'OriginalConfig'
p2
ccopy_reg
_reconstructor
p3
(cWMCore.Configuration
Configuration
p4
c__builtin__
object
p5
NtRp6
(dp7
S'Site'
p8
g3
(cWMCore.Configuration
ConfigSection
p9
g5
NtRp10
(dp11
S'_internal_documentation'
p12
S''
sS'_internal_settings'
p13
c__builtin__
set
p14
((lp15
S'storageSite'
p16
atRp17
sS'_internal_name'
p18
g8
sS'_internal_docstrings'
p19
(dp20
sS'_internal_children'
p21
g14
((ltRp22
sg16
S'T2_US_Vanderbilt'
p23
sS'_internal_parent_ref'
p24
NsbsS'_internal_sections'
p25
(lp26
S'General'
p27
aS'JobType'
p28
aS'Data'
p29
ag8
aS'User'
p30
aS'Debug'
p31
asg27
g3
(g9
g5
NtRp32
(dp33
S'transferLogs'
p34
I00
sg12
S''
sg13
g14
((lp35
g34
aS'transferOutputs'
p36
aS'workArea'
p37
aS'requestName'
p38
atRp39
sg18
g27
sg19
(dp40
sg36
I01
sg21
g14
((ltRp41
sg38
S'MultiStrangePYTHIA_step1'
p42
sg24
Nsg37
S'crab_projects_nofilter'
p43
sbsS'_internal_webapps'
p44
(lp45
sg30
g3
(g9
g5
NtRp46
(dp47
g12
S''
sg13
g14
((ltRp48
sg18
g30
sg19
(dp49
sg21
g14
((ltRp50
sg24
NsbsS'_internal_components'
p51
(lp52
sg31
g3
(g9
g5
NtRp53
(dp54
g12
S''
sg13
g14
((ltRp55
sg18
g31
sg19
(dp56
sg21
g14
((ltRp57
sg24
Nsbsg29
g3
(g9
g5
NtRp58
(dp59
S'outputDatasetTag'
p60
S'MultistrangeFilteredPYTHIA_GENSIM_755patch3'
p61
sS'totalUnits'
p62
I2500000000
sS'unitsPerJob'
p63
I500000
sg12
S''
sg13
g14
((lp64
g60
aS'publication'
p65
ag63
aS'splitting'
p66
aS'outLFNDirBase'
p67
aS'outputPrimaryDataset'
p68
ag62
atRp69
sg67
S'/store/user/qixu/'
p70
sg18
g29
sg66
S'EventBased'
p71
sg19
(dp72
sg21
g14
((ltRp73
sg68
S'MinBias'
p74
sg24
Nsg65
I01
sbsg28
g3
(g9
g5
NtRp75
(dp76
g12
S''
sg13
g14
((lp77
S'psetName'
p78
aS'pluginName'
p79
atRp80
sg18
g28
sg19
(dp81
sg79
S'PrivateMC'
p82
sg21
g14
((ltRp83
sg78
S'PYTHIA8_TuneCUETP8M1_5TeV_XiFilter_cff_GEN_SIM.py'
p84
sg24
NsbsbsS'voGroup'
p85
S''
sS'Server'
p86
S'cmsweb.cern.ch'
p87
sS'instance'
p88
S'prod'
p89
sS'RequestName'
p90
S'160126_225959:qixu_crab_MultiStrangePYTHIA_step1'
p91
sS'voRole'
p92
S'NULL'
p93
sS'Port'
p94
S''
s.